target datalayout = "e-m:e-p270:32:32-p271:32:32-p272:64:64-i64:64-i128:128-f80:128-n8:16:32:64-S128"
target triple = "x86_64-pc-linux-gnu"

%"class.zmq::own_t.base" = type <{ %"class.zmq::object_t.base", [4 x i8], %"struct.zmq::options_t", i8, [7 x i8], %"class.zmq::atomic_counter_t", i64, ptr, %"class.std::set.24", i32 }>
%"class.zmq::object_t.base" = type <{ ptr, ptr, i32 }>
%"struct.zmq::options_t" = type { i32, i32, i64, i8, [256 x i8], i32, i32, i32, i32, i32, i32, i32, i32, i8, %"struct.zmq::atomic_value_t", i32, i32, i32, i32, i32, i32, i64, i32, i32, i8, i32, i8, i8, i8, i8, i8, %"class.std::__cxx11::basic_string", %"class.std::__cxx11::basic_string", %"class.std::__cxx11::basic_string", i32, i32, i32, i32, %"class.std::vector", %"class.std::set", %"class.std::set", %"class.std::set.6", i32, i32, %"class.std::__cxx11::basic_string", %"class.std::__cxx11::basic_string", %"class.std::__cxx11::basic_string", [32 x i8], [32 x i8], [32 x i8], %"class.std::__cxx11::basic_string", %"class.std::__cxx11::basic_string", i32, i32, i8, i32, i8, i32, i8, i16, i32, i32, i32, %"class.std::__cxx11::basic_string", i8, i8, i8, i32, i32, i8, i32, %"class.std::map", i32, %"class.std::__cxx11::basic_string", %"class.std::__cxx11::basic_string", %"class.std::__cxx11::basic_string", %"class.std::__cxx11::basic_string", i8, %"class.std::vector.17", i8, %"class.std::vector.17", i8, %"class.std::vector.17", i8, i32, i8, i32, i32, i32, i32, i32, i8, i32 }
%"struct.zmq::atomic_value_t" = type { %"struct.std::atomic" }
%"struct.std::atomic" = type { %"struct.std::__atomic_base" }
%"struct.std::__atomic_base" = type { i32 }
%"class.std::vector" = type { %"struct.std::_Vector_base" }
%"struct.std::_Vector_base" = type { %"struct.std::_Vector_base<zmq::tcp_address_mask_t, std::allocator<zmq::tcp_address_mask_t>>::_Vector_impl" }
%"struct.std::_Vector_base<zmq::tcp_address_mask_t, std::allocator<zmq::tcp_address_mask_t>>::_Vector_impl" = type { %"struct.std::_Vector_base<zmq::tcp_address_mask_t, std::allocator<zmq::tcp_address_mask_t>>::_Vector_impl_data" }
%"struct.std::_Vector_base<zmq::tcp_address_mask_t, std::allocator<zmq::tcp_address_mask_t>>::_Vector_impl_data" = type { ptr, ptr, ptr }
%"class.std::set" = type { %"class.std::_Rb_tree" }
%"class.std::_Rb_tree" = type { %"struct.std::_Rb_tree<unsigned int, unsigned int, std::_Identity<unsigned int>, std::less<unsigned int>>::_Rb_tree_impl" }
%"struct.std::_Rb_tree<unsigned int, unsigned int, std::_Identity<unsigned int>, std::less<unsigned int>>::_Rb_tree_impl" = type { [8 x i8], %"struct.std::_Rb_tree_header" }
%"struct.std::_Rb_tree_header" = type { %"struct.std::_Rb_tree_node_base", i64 }
%"struct.std::_Rb_tree_node_base" = type { i32, ptr, ptr, ptr }
%"class.std::set.6" = type { %"class.std::_Rb_tree.7" }
%"class.std::_Rb_tree.7" = type { %"struct.std::_Rb_tree<int, int, std::_Identity<int>, std::less<int>>::_Rb_tree_impl" }
%"struct.std::_Rb_tree<int, int, std::_Identity<int>, std::less<int>>::_Rb_tree_impl" = type { [8 x i8], %"struct.std::_Rb_tree_header" }
%"class.std::map" = type { %"class.std::_Rb_tree.12" }
%"class.std::_Rb_tree.12" = type { %"struct.std::_Rb_tree<std::__cxx11::basic_string<char>, std::pair<const std::__cxx11::basic_string<char>, std::__cxx11::basic_string<char>>, std::_Select1st<std::pair<const std::__cxx11::basic_string<char>, std::__cxx11::basic_string<char>>>, std::less<std::__cxx11::basic_string<char>>>::_Rb_tree_impl" }
%"struct.std::_Rb_tree<std::__cxx11::basic_string<char>, std::pair<const std::__cxx11::basic_string<char>, std::__cxx11::basic_string<char>>, std::_Select1st<std::pair<const std::__cxx11::basic_string<char>, std::__cxx11::basic_string<char>>>, std::less<std::__cxx11::basic_string<char>>>::_Rb_tree_impl" = type { [8 x i8], %"struct.std::_Rb_tree_header" }
%"class.std::vector.17" = type { %"struct.std::_Vector_base.18" }
%"struct.std::_Vector_base.18" = type { %"struct.std::_Vector_base<unsigned char, std::allocator<unsigned char>>::_Vector_impl" }
%"struct.std::_Vector_base<unsigned char, std::allocator<unsigned char>>::_Vector_impl" = type { %"struct.std::_Vector_base<unsigned char, std::allocator<unsigned char>>::_Vector_impl_data" }
%"struct.std::_Vector_base<unsigned char, std::allocator<unsigned char>>::_Vector_impl_data" = type { ptr, ptr, ptr }
%"class.zmq::atomic_counter_t" = type { %"struct.std::atomic.22", [4 x i8] }
%"struct.std::atomic.22" = type { %"struct.std::__atomic_base.23" }
%"struct.std::__atomic_base.23" = type { i32 }
%"class.std::set.24" = type { %"class.std::_Rb_tree.25" }
%"class.std::_Rb_tree.25" = type { %"struct.std::_Rb_tree<zmq::own_t *, zmq::own_t *, std::_Identity<zmq::own_t *>, std::less<zmq::own_t *>>::_Rb_tree_impl" }
%"struct.std::_Rb_tree<zmq::own_t *, zmq::own_t *, std::_Identity<zmq::own_t *>, std::less<zmq::own_t *>>::_Rb_tree_impl" = type { [8 x i8], %"struct.std::_Rb_tree_header" }
%"struct.zmq::i_poll_events" = type { ptr }
%"struct.zmq::i_pipe_events" = type { ptr }
%"class.std::__cxx11::basic_string" = type { %"struct.std::__cxx11::basic_string<char>::_Alloc_hider", i64, %union.anon }
%"struct.std::__cxx11::basic_string<char>::_Alloc_hider" = type { ptr }
%union.anon = type { i64, [8 x i8] }
%"class.zmq::msg_t" = type { %union.anon.51 }
%union.anon.51 = type { %struct.anon }
%struct.anon = type { ptr, [34 x i8], i8, i8, i32, %"union.zmq::msg_t::group_t" }
%"union.zmq::msg_t::group_t" = type { %struct.anon.53 }
%struct.anon.53 = type { i8, ptr }
%"class.zmq::dish_session_t" = type { %"class.zmq::session_base_t", i32, %"class.zmq::msg_t" }
%"class.zmq::session_base_t" = type { %"class.zmq::own_t.base", %"class.zmq::io_object_t", %"struct.zmq::i_pipe_events", i8, ptr, ptr, %"class.std::set.65", i8, i8, ptr, ptr, ptr, i8, ptr, %"class.std::__cxx11::basic_string" }
%"class.zmq::io_object_t" = type { %"struct.zmq::i_poll_events", ptr }
%"class.std::set.65" = type { %"class.std::_Rb_tree.66" }
%"class.std::_Rb_tree.66" = type { %"struct.std::_Rb_tree<zmq::pipe_t *, zmq::pipe_t *, std::_Identity<zmq::pipe_t *>, std::less<zmq::pipe_t *>>::_Rb_tree_impl" }
%"struct.std::_Rb_tree<zmq::pipe_t *, zmq::pipe_t *, std::_Identity<zmq::pipe_t *>, std::less<zmq::pipe_t *>>::_Rb_tree_impl" = type { [8 x i8], %"struct.std::_Rb_tree_header" }

@stderr = external global ptr, align 8
@.str = private unnamed_addr constant [12 x i8] c"%s (%s:%d)\0A\00", align 1
@.str.1 = private unnamed_addr constant [104 x i8] c"generated/home/dtcxzyw/WorkSpace/Projects/compilers/llvm-opt-benchmark/bench/libzmq/libzmq/src/dish.cpp\00", align 1

; Function Attrs: mustprogress uwtable
define noundef i32 @_ZN3zmq14dish_session_t8push_msgEPNS_5msg_tE(ptr noundef nonnull align 8 dereferenceable(1696) %0, ptr noundef %1) unnamed_addr #0 align 2 {
  %3 = alloca i32, align 4
  %4 = alloca ptr, align 8
  %5 = alloca ptr, align 8
  %6 = alloca i32, align 4
  %7 = alloca ptr, align 8
  %8 = alloca ptr, align 8
  %9 = alloca i32, align 4
  %10 = alloca ptr, align 8
  %11 = alloca ptr, align 8
  %12 = alloca i32, align 4
  store ptr %0, ptr %4, align 8, !tbaa !125
  store ptr %1, ptr %5, align 8, !tbaa !119
  %13 = load ptr, ptr %4, align 8
  %14 = getelementptr inbounds nuw %"class.zmq::dish_session_t", ptr %13, i32 0, i32 1
  %15 = load i32, ptr %14, align 8, !tbaa !135
  %16 = icmp eq i32 %15, 0
  br i1 %16, label %17, label %57

17:                                               ; preds = %2
  %18 = load ptr, ptr %5, align 8, !tbaa !119
  %19 = call noundef zeroext i8 @_ZNK3zmq5msg_t5flagsEv(ptr noundef nonnull align 8 dereferenceable(64) %18)
  %20 = zext i8 %19 to i32
  %21 = and i32 %20, 1
  %22 = icmp ne i32 %21, 1
  br i1 %22, label %23, label %25

23:                                               ; preds = %17
  %24 = call ptr @__errno_location() #19
  store i32 14, ptr %24, align 4, !tbaa !10
  store i32 -1, ptr %3, align 4
  br label %133

25:                                               ; preds = %17
  %26 = load ptr, ptr %5, align 8, !tbaa !119
  %27 = call noundef i64 @_ZNK3zmq5msg_t4sizeEv(ptr noundef nonnull align 8 dereferenceable(64) %26)
  %28 = icmp ugt i64 %27, 255
  br i1 %28, label %29, label %31

29:                                               ; preds = %25
  %30 = call ptr @__errno_location() #19
  store i32 14, ptr %30, align 4, !tbaa !10
  store i32 -1, ptr %3, align 4
  br label %133

31:                                               ; preds = %25
  %32 = load ptr, ptr %5, align 8, !tbaa !119
  %33 = getelementptr inbounds nuw %"class.zmq::dish_session_t", ptr %13, i32 0, i32 2
  call void @llvm.memcpy.p0.p0.i64(ptr align 8 %33, ptr align 8 %32, i64 64, i1 false), !tbaa.struct !146
  %34 = getelementptr inbounds nuw %"class.zmq::dish_session_t", ptr %13, i32 0, i32 1
  store i32 1, ptr %34, align 8, !tbaa !135
  call void @llvm.lifetime.start.p0(i64 4, ptr %6) #18
  %35 = load ptr, ptr %5, align 8, !tbaa !119
  %36 = call noundef i32 @_ZN3zmq5msg_t4initEv(ptr noundef nonnull align 8 dereferenceable(64) %35)
  store i32 %36, ptr %6, align 4, !tbaa !10
  br label %37

37:                                               ; preds = %31
  %38 = load i32, ptr %6, align 4, !tbaa !10
  %39 = icmp eq i32 %38, 0
  %40 = xor i1 %39, true
  %41 = zext i1 %40 to i64
  %42 = call i64 @llvm.expect.i64(i64 %41, i64 0)
  %43 = icmp ne i64 %42, 0
  br i1 %43, label %44, label %54

44:                                               ; preds = %37
  call void @llvm.lifetime.start.p0(i64 8, ptr %7) #18
  %45 = call ptr @__errno_location() #19
  %46 = load i32, ptr %45, align 4, !tbaa !10
  %47 = call ptr @strerror(i32 noundef %46) #18
  store ptr %47, ptr %7, align 8, !tbaa !97
  %48 = load ptr, ptr @stderr, align 8, !tbaa !98
  %49 = load ptr, ptr %7, align 8, !tbaa !97
  %50 = call i32 (ptr, ptr, ...) @fprintf(ptr noundef %48, ptr noundef @.str, ptr noundef %49, ptr noundef @.str.1, i32 noundef 244) #18
  %51 = load ptr, ptr @stderr, align 8, !tbaa !98
  %52 = call i32 @fflush(ptr noundef %51)
  %53 = load ptr, ptr %7, align 8, !tbaa !97
  call void @_ZN3zmq9zmq_abortEPKc(ptr noundef %53)
  call void @llvm.lifetime.end.p0(i64 8, ptr %7) #18
  br label %54

54:                                               ; preds = %44, %37
  br label %55

55:                                               ; preds = %54
  br label %56

56:                                               ; preds = %55
  store i32 0, ptr %3, align 4
  call void @llvm.lifetime.end.p0(i64 4, ptr %6) #18
  br label %133

57:                                               ; preds = %2
  call void @llvm.lifetime.start.p0(i64 8, ptr %8) #18
  %58 = load ptr, ptr %5, align 8, !tbaa !119
  %59 = call noundef ptr @_ZNK3zmq5msg_t5groupEv(ptr noundef nonnull align 8 dereferenceable(64) %58)
  store ptr %59, ptr %8, align 8, !tbaa !97
  call void @llvm.lifetime.start.p0(i64 4, ptr %9) #18
  %60 = load ptr, ptr %8, align 8, !tbaa !97
  %61 = getelementptr inbounds i8, ptr %60, i64 0
  %62 = load i8, ptr %61, align 1, !tbaa !147
  %63 = sext i8 %62 to i32
  %64 = icmp ne i32 %63, 0
  br i1 %64, label %65, label %66

65:                                               ; preds = %57
  br label %115

66:                                               ; preds = %57
  %67 = load ptr, ptr %5, align 8, !tbaa !119
  %68 = getelementptr inbounds nuw %"class.zmq::dish_session_t", ptr %13, i32 0, i32 2
  %69 = call noundef ptr @_ZN3zmq5msg_t4dataEv(ptr noundef nonnull align 8 dereferenceable(64) %68)
  %70 = getelementptr inbounds nuw %"class.zmq::dish_session_t", ptr %13, i32 0, i32 2
  %71 = call noundef i64 @_ZNK3zmq5msg_t4sizeEv(ptr noundef nonnull align 8 dereferenceable(64) %70)
  %72 = call noundef i32 @_ZN3zmq5msg_t9set_groupEPKcm(ptr noundef nonnull align 8 dereferenceable(64) %67, ptr noundef %69, i64 noundef %71)
  store i32 %72, ptr %9, align 4, !tbaa !10
  br label %73

73:                                               ; preds = %66
  %74 = load i32, ptr %9, align 4, !tbaa !10
  %75 = icmp eq i32 %74, 0
  %76 = xor i1 %75, true
  %77 = zext i1 %76 to i64
  %78 = call i64 @llvm.expect.i64(i64 %77, i64 0)
  %79 = icmp ne i64 %78, 0
  br i1 %79, label %80, label %90

80:                                               ; preds = %73
  call void @llvm.lifetime.start.p0(i64 8, ptr %10) #18
  %81 = call ptr @__errno_location() #19
  %82 = load i32, ptr %81, align 4, !tbaa !10
  %83 = call ptr @strerror(i32 noundef %82) #18
  store ptr %83, ptr %10, align 8, !tbaa !97
  %84 = load ptr, ptr @stderr, align 8, !tbaa !98
  %85 = load ptr, ptr %10, align 8, !tbaa !97
  %86 = call i32 (ptr, ptr, ...) @fprintf(ptr noundef %84, ptr noundef @.str, ptr noundef %85, ptr noundef @.str.1, i32 noundef 255) #18
  %87 = load ptr, ptr @stderr, align 8, !tbaa !98
  %88 = call i32 @fflush(ptr noundef %87)
  %89 = load ptr, ptr %10, align 8, !tbaa !97
  call void @_ZN3zmq9zmq_abortEPKc(ptr noundef %89)
  call void @llvm.lifetime.end.p0(i64 8, ptr %10) #18
  br label %90

90:                                               ; preds = %80, %73
  br label %91

91:                                               ; preds = %90
  br label %92

92:                                               ; preds = %91
  %93 = getelementptr inbounds nuw %"class.zmq::dish_session_t", ptr %13, i32 0, i32 2
  %94 = call noundef i32 @_ZN3zmq5msg_t5closeEv(ptr noundef nonnull align 8 dereferenceable(64) %93)
  store i32 %94, ptr %9, align 4, !tbaa !10
  br label %95

95:                                               ; preds = %92
  %96 = load i32, ptr %9, align 4, !tbaa !10
  %97 = icmp eq i32 %96, 0
  %98 = xor i1 %97, true
  %99 = zext i1 %98 to i64
  %100 = call i64 @llvm.expect.i64(i64 %99, i64 0)
  %101 = icmp ne i64 %100, 0
  br i1 %101, label %102, label %112

102:                                              ; preds = %95
  call void @llvm.lifetime.start.p0(i64 8, ptr %11) #18
  %103 = call ptr @__errno_location() #19
  %104 = load i32, ptr %103, align 4, !tbaa !10
  %105 = call ptr @strerror(i32 noundef %104) #18
  store ptr %105, ptr %11, align 8, !tbaa !97
  %106 = load ptr, ptr @stderr, align 8, !tbaa !98
  %107 = load ptr, ptr %11, align 8, !tbaa !97
  %108 = call i32 (ptr, ptr, ...) @fprintf(ptr noundef %106, ptr noundef @.str, ptr noundef %107, ptr noundef @.str.1, i32 noundef 259) #18
  %109 = load ptr, ptr @stderr, align 8, !tbaa !98
  %110 = call i32 @fflush(ptr noundef %109)
  %111 = load ptr, ptr %11, align 8, !tbaa !97
  call void @_ZN3zmq9zmq_abortEPKc(ptr noundef %111)
  call void @llvm.lifetime.end.p0(i64 8, ptr %11) #18
  br label %112

112:                                              ; preds = %102, %95
  br label %113

113:                                              ; preds = %112
  br label %114

114:                                              ; preds = %113
  br label %115

115:                                              ; preds = %114, %65
  %116 = load ptr, ptr %5, align 8, !tbaa !119
  %117 = call noundef zeroext i8 @_ZNK3zmq5msg_t5flagsEv(ptr noundef nonnull align 8 dereferenceable(64) %116)
  %118 = zext i8 %117 to i32
  %119 = and i32 %118, 1
  %120 = icmp eq i32 %119, 1
  br i1 %120, label %121, label %123

121:                                              ; preds = %115
  %122 = call ptr @__errno_location() #19
  store i32 14, ptr %122, align 4, !tbaa !10
  store i32 -1, ptr %3, align 4
  store i32 1, ptr %12, align 4
  br label %132

123:                                              ; preds = %115
  %124 = load ptr, ptr %5, align 8, !tbaa !119
  %125 = call noundef i32 @_ZN3zmq14session_base_t8push_msgEPNS_5msg_tE(ptr noundef nonnull align 8 dereferenceable(1624) %13, ptr noundef %124)
  store i32 %125, ptr %9, align 4, !tbaa !10
  %126 = load i32, ptr %9, align 4, !tbaa !10
  %127 = icmp eq i32 %126, 0
  br i1 %127, label %128, label %130

128:                                              ; preds = %123
  %129 = getelementptr inbounds nuw %"class.zmq::dish_session_t", ptr %13, i32 0, i32 1
  store i32 0, ptr %129, align 8, !tbaa !135
  br label %130

130:                                              ; preds = %128, %123
  %131 = load i32, ptr %9, align 4, !tbaa !10
  store i32 %131, ptr %3, align 4
  store i32 1, ptr %12, align 4
  br label %132

132:                                              ; preds = %130, %121
  call void @llvm.lifetime.end.p0(i64 4, ptr %9) #18
  call void @llvm.lifetime.end.p0(i64 8, ptr %8) #18
  br label %133

133:                                              ; preds = %132, %56, %29, %23
  %134 = load i32, ptr %3, align 4
  ret i32 %134
}