; Function Attrs: mustprogress uwtable
define noundef i32 @_ZN3zmq14dish_session_t8push_msgEPNS_5msg_tE(ptr noundef nonnull align 8 dereferenceable(1696) %0, ptr noundef %1) unnamed_addr #0 align 2 {
  %3 = getelementptr inbounds nuw i8, ptr %0, i64 1624
  %4 = load i32, ptr %3, align 8, !tbaa !115
  %5 = icmp eq i32 %4, 0
  br i1 %5, label %6, label %27

6:                                                ; preds = %2
  %7 = tail call noundef zeroext i8 @_ZNK3zmq5msg_t5flagsEv(ptr noundef nonnull align 8 dereferenceable(64) %1)
  %8 = and i8 %7, 1
  %.not24.not = icmp eq i8 %8, 0
  br i1 %.not24.not, label %9, label %11

9:                                                ; preds = %6
  %10 = tail call ptr @__errno_location() #21
  store i32 14, ptr %10, align 4, !tbaa !99
  br label %62

11:                                               ; preds = %6
  %12 = tail call noundef i64 @_ZNK3zmq5msg_t4sizeEv(ptr noundef nonnull align 8 dereferenceable(64) %1)
  %13 = icmp ugt i64 %12, 255
  br i1 %13, label %14, label %16

14:                                               ; preds = %11
  %15 = tail call ptr @__errno_location() #21
  store i32 14, ptr %15, align 4, !tbaa !99
  br label %62

16:                                               ; preds = %11
  %17 = getelementptr inbounds nuw i8, ptr %0, i64 1632
  tail call void @llvm.memcpy.p0.p0.i64(ptr noundef nonnull align 8 dereferenceable(64) %17, ptr noundef nonnull align 8 dereferenceable(64) %1, i64 64, i1 false), !tbaa.struct !130
  store i32 1, ptr %3, align 8, !tbaa !115
  %18 = tail call noundef i32 @_ZN3zmq5msg_t4initEv(ptr noundef nonnull align 8 dereferenceable(64) %1)
  %.not25 = icmp eq i32 %18, 0
  br i1 %.not25, label %62, label %19, !prof !98

19:                                               ; preds = %16
  %20 = tail call ptr @__errno_location() #21
  %21 = load i32, ptr %20, align 4, !tbaa !99
  %22 = tail call ptr @strerror(i32 noundef %21) #22
  %23 = load ptr, ptr @stderr, align 8, !tbaa !100
  %24 = tail call i32 (ptr, ptr, ...) @fprintf(ptr noundef %23, ptr noundef nonnull @.str, ptr noundef %22, ptr noundef nonnull @.str.1, i32 noundef 244) #23
  %25 = load ptr, ptr @stderr, align 8, !tbaa !100
  %26 = tail call i32 @fflush(ptr noundef %25)
  tail call void @_ZN3zmq9zmq_abortEPKc(ptr noundef %22)
  br label %62

27:                                               ; preds = %2
  %28 = tail call noundef ptr @_ZNK3zmq5msg_t5groupEv(ptr noundef nonnull align 8 dereferenceable(64) %1)
  %29 = load i8, ptr %28, align 1, !tbaa !108
  %.not = icmp eq i8 %29, 0
  br i1 %.not, label %30, label %53

30:                                               ; preds = %27
  %31 = getelementptr inbounds nuw i8, ptr %0, i64 1632
  %32 = tail call noundef ptr @_ZN3zmq5msg_t4dataEv(ptr noundef nonnull align 8 dereferenceable(64) %31)
  %33 = tail call noundef i64 @_ZNK3zmq5msg_t4sizeEv(ptr noundef nonnull align 8 dereferenceable(64) %31)
  %34 = tail call noundef i32 @_ZN3zmq5msg_t9set_groupEPKcm(ptr noundef nonnull align 8 dereferenceable(64) %1, ptr noundef %32, i64 noundef %33)
  %.not21 = icmp eq i32 %34, 0
  br i1 %.not21, label %43, label %35, !prof !98

35:                                               ; preds = %30
  %36 = tail call ptr @__errno_location() #21
  %37 = load i32, ptr %36, align 4, !tbaa !99
  %38 = tail call ptr @strerror(i32 noundef %37) #22
  %39 = load ptr, ptr @stderr, align 8, !tbaa !100
  %40 = tail call i32 (ptr, ptr, ...) @fprintf(ptr noundef %39, ptr noundef nonnull @.str, ptr noundef %38, ptr noundef nonnull @.str.1, i32 noundef 255) #23
  %41 = load ptr, ptr @stderr, align 8, !tbaa !100
  %42 = tail call i32 @fflush(ptr noundef %41)
  tail call void @_ZN3zmq9zmq_abortEPKc(ptr noundef %38)
  br label %43

43:                                               ; preds = %35, %30
  %44 = tail call noundef i32 @_ZN3zmq5msg_t5closeEv(ptr noundef nonnull align 8 dereferenceable(64) %31)
  %.not22 = icmp eq i32 %44, 0
  br i1 %.not22, label %53, label %45, !prof !98

45:                                               ; preds = %43
  %46 = tail call ptr @__errno_location() #21
  %47 = load i32, ptr %46, align 4, !tbaa !99
  %48 = tail call ptr @strerror(i32 noundef %47) #22
  %49 = load ptr, ptr @stderr, align 8, !tbaa !100
  %50 = tail call i32 (ptr, ptr, ...) @fprintf(ptr noundef %49, ptr noundef nonnull @.str, ptr noundef %48, ptr noundef nonnull @.str.1, i32 noundef 259) #23
  %51 = load ptr, ptr @stderr, align 8, !tbaa !100
  %52 = tail call i32 @fflush(ptr noundef %51)
  tail call void @_ZN3zmq9zmq_abortEPKc(ptr noundef %48)
  br label %53

53:                                               ; preds = %43, %45, %27
  %54 = tail call noundef zeroext i8 @_ZNK3zmq5msg_t5flagsEv(ptr noundef nonnull align 8 dereferenceable(64) %1)
  %55 = and i8 %54, 1
  %.not23 = icmp eq i8 %55, 0
  br i1 %.not23, label %58, label %56

56:                                               ; preds = %53
  %57 = tail call ptr @__errno_location() #21
  store i32 14, ptr %57, align 4, !tbaa !99
  br label %62

58:                                               ; preds = %53
  %59 = tail call noundef i32 @_ZN3zmq14session_base_t8push_msgEPNS_5msg_tE(ptr noundef nonnull align 8 dereferenceable(1624) %0, ptr noundef nonnull %1)
  %60 = icmp eq i32 %59, 0
  br i1 %60, label %61, label %62

61:                                               ; preds = %58
  store i32 0, ptr %3, align 8, !tbaa !115
  br label %62

62:                                               ; preds = %56, %61, %58, %16, %19, %14, %9
  %.0 = phi i32 [ -1, %9 ], [ -1, %14 ], [ 0, %19 ], [ 0, %16 ], [ -1, %56 ], [ 0, %61 ], [ %59, %58 ]
  ret i32 %.0
}